(lp0
(lp1
S'Date'
p2
aS'Target'
p3
aS'Actual'
p4
aa(lp5
S'01-Feb-2014'
p6
aI100
aI100
aa(lp7
S'02-Feb-2014'
p8
aF96.42857142857143
aNaa(lp9
S'03-Feb-2014'
p10
aF92.85714285714286
aNaa(lp11
S'04-Feb-2014'
p12
aF89.28571428571429
aNaa(lp13
S'05-Feb-2014'
p14
aF85.71428571428572
aNaa(lp15
S'06-Feb-2014'
p16
aF82.14285714285715
aNaa(lp17
S'07-Feb-2014'
p18
aF78.57142857142858
aNaa(lp19
S'08-Feb-2014'
p20
aF75.00000000000001
aNaa(lp21
S'09-Feb-2014'
p22
aF71.42857142857144
aNaa(lp23
S'10-Feb-2014'
p24
aF67.85714285714288
aF86.3
aa(lp25
S'11-Feb-2014'
p26
aF64.2857142857143
aNaa(lp27
S'12-Feb-2014'
p28
aF60.71428571428574
aNaa(lp29
S'13-Feb-2014'
p30
aF57.14285714285717
aNaa(lp31
S'14-Feb-2014'
p32
aF53.5714285714286
aNaa(lp33
S'15-Feb-2014'
p34
aF50.00000000000003
aNaa(lp35
S'16-Feb-2014'
p36
aF46.42857142857146
aNaa(lp37
S'17-Feb-2014'
p38
aF42.85714285714289
aNaa(lp39
S'18-Feb-2014'
p40
aF39.28571428571432
aNaa(lp41
S'19-Feb-2014'
p42
aF35.71428571428575
aNaa(lp43
S'20-Feb-2014'
p44
aF32.14285714285718
aNaa(lp45
S'21-Feb-2014'
p46
aF28.57142857142861
aNaa(lp47
S'22-Feb-2014'
p48
aF25.000000000000036
aNaa(lp49
S'23-Feb-2014'
p50
aF21.428571428571463
aNaa(lp51
S'24-Feb-2014'
p52
aF17.85714285714289
aNaa(lp53
S'25-Feb-2014'
p54
aF14.285714285714318
aNaa(lp55
S'26-Feb-2014'
p56
aF10.714285714285747
aNaa(lp57
S'27-Feb-2014'
p58
aF7.142857142857176
aNaa(lp59
S'28-Feb-2014'
p60
aF3.5714285714286045
aNaa.